target datalayout = "e-m:e-p270:32:32-p271:32:32-p272:64:64-i64:64-i128:128-f80:128-n8:16:32:64-S128"
target triple = "x86_64-pc-linux-gnu"

%"class.lp::int_solver" = type { ptr, ptr, ptr, %class.vector }
%class.vector = type { ptr }
%class.stacked_value = type { i32, %class.vector.6 }
%class.vector.6 = type { ptr }
%"class.lp::lar_core_solver" = type { %class.vector.7, i32, %class.vector.8, %class.vector.9, %class.stacked_value, %class.vector.8, %class.vector.8, %"class.lp::stacked_vector", %"class.lp::stacked_vector.12", %"class.lp::stacked_vector.12", %"class.lp::static_matrix", %"class.lp::stacked_vector.27", %class.vector.29, %class.vector.29, %"class.std::vector.30", %"class.lp::lp_primal_core_solver" }
%class.vector.7 = type { ptr }
%class.vector.9 = type { ptr }
%class.vector.8 = type { ptr }
%"class.lp::stacked_vector" = type { %class.svector, %class.svector, %class.vector.10, %class.vector.11, %class.svector }
%class.vector.10 = type { ptr }
%class.vector.11 = type { ptr }
%"class.lp::stacked_vector.12" = type { %class.svector, %class.svector, %class.vector.13, %class.vector.8, %class.svector }
%class.vector.13 = type { ptr }
%"class.lp::static_matrix" = type { %"class.std::stack", %class.vector.14, %"class.lp::indexed_vector", %"class.std::vector.19", %"class.std::vector.23" }
%"class.std::stack" = type { %"class.std::deque" }
%"class.std::deque" = type { %"class.std::_Deque_base" }
%"class.std::_Deque_base" = type { %"struct.std::_Deque_base<lp::static_matrix<rational, lp::numeric_pair<rational>>::dim, std::allocator<lp::static_matrix<rational, lp::numeric_pair<rational>>::dim>>::_Deque_impl" }
%"struct.std::_Deque_base<lp::static_matrix<rational, lp::numeric_pair<rational>>::dim, std::allocator<lp::static_matrix<rational, lp::numeric_pair<rational>>::dim>>::_Deque_impl" = type { %"struct.std::_Deque_base<lp::static_matrix<rational, lp::numeric_pair<rational>>::dim, std::allocator<lp::static_matrix<rational, lp::numeric_pair<rational>>::dim>>::_Deque_impl_data" }
%"struct.std::_Deque_base<lp::static_matrix<rational, lp::numeric_pair<rational>>::dim, std::allocator<lp::static_matrix<rational, lp::numeric_pair<rational>>::dim>>::_Deque_impl_data" = type { ptr, i64, %"struct.std::_Deque_iterator", %"struct.std::_Deque_iterator" }
%"struct.std::_Deque_iterator" = type { ptr, ptr, ptr, ptr }
%class.vector.14 = type { ptr }
%"class.std::vector.19" = type { %"struct.std::_Vector_base.20" }
%"struct.std::_Vector_base.20" = type { %"struct.std::_Vector_base<std::vector<lp::row_cell<rational>, std_allocator<lp::row_cell<rational>>>, std_allocator<std::vector<lp::row_cell<rational>, std_allocator<lp::row_cell<rational>>>>>::_Vector_impl" }
%"struct.std::_Vector_base<std::vector<lp::row_cell<rational>, std_allocator<lp::row_cell<rational>>>, std_allocator<std::vector<lp::row_cell<rational>, std_allocator<lp::row_cell<rational>>>>>::_Vector_impl" = type { %"struct.std::_Vector_base<std::vector<lp::row_cell<rational>, std_allocator<lp::row_cell<rational>>>, std_allocator<std::vector<lp::row_cell<rational>, std_allocator<lp::row_cell<rational>>>>>::_Vector_impl_data" }
%"struct.std::_Vector_base<std::vector<lp::row_cell<rational>, std_allocator<lp::row_cell<rational>>>, std_allocator<std::vector<lp::row_cell<rational>, std_allocator<lp::row_cell<rational>>>>>::_Vector_impl_data" = type { ptr, ptr, ptr }
%"class.std::vector.23" = type { %"struct.std::_Vector_base.24" }
%"struct.std::_Vector_base.24" = type { %"struct.std::_Vector_base<std::vector<lp::row_cell<lp::empty_struct>, std_allocator<lp::row_cell<lp::empty_struct>>>, std_allocator<std::vector<lp::row_cell<lp::empty_struct>, std_allocator<lp::row_cell<lp::empty_struct>>>>>::_Vector_impl" }
%"struct.std::_Vector_base<std::vector<lp::row_cell<lp::empty_struct>, std_allocator<lp::row_cell<lp::empty_struct>>>, std_allocator<std::vector<lp::row_cell<lp::empty_struct>, std_allocator<lp::row_cell<lp::empty_struct>>>>>::_Vector_impl" = type { %"struct.std::_Vector_base<std::vector<lp::row_cell<lp::empty_struct>, std_allocator<lp::row_cell<lp::empty_struct>>>, std_allocator<std::vector<lp::row_cell<lp::empty_struct>, std_allocator<lp::row_cell<lp::empty_struct>>>>>::_Vector_impl_data" }
%"struct.std::_Vector_base<std::vector<lp::row_cell<lp::empty_struct>, std_allocator<lp::row_cell<lp::empty_struct>>>, std_allocator<std::vector<lp::row_cell<lp::empty_struct>, std_allocator<lp::row_cell<lp::empty_struct>>>>>::_Vector_impl_data" = type { ptr, ptr, ptr }
%class.vector.29 = type { ptr }
%"class.std::vector.30" = type { %"struct.std::_Vector_base.31" }
%"struct.std::_Vector_base.31" = type { %"struct.std::_Vector_base<int, std_allocator<int>>::_Vector_impl" }
%"struct.std::_Vector_base<int, std_allocator<int>>::_Vector_impl" = type { %"struct.std::_Vector_base<int, std_allocator<int>>::_Vector_impl_data" }
%"struct.std::_Vector_base<int, std_allocator<int>>::_Vector_impl_data" = type { ptr, ptr, ptr }
%"class.lp::lp_primal_core_solver" = type { %"class.lp::lp_core_solver_base.base", i32, %class.vector.9, i32, i8, %class.indexed_uint_set, i32, i32, %class.vector.29, %"class.std::__cxx11::list" }
%"class.lp::lp_core_solver_base.base" = type <{ ptr, i32, i32, i32, [4 x i8], %class.heap, %"class.lp::indexed_vector", ptr, ptr, ptr, ptr, ptr, ptr, ptr, ptr, %class.vector.9, ptr, ptr, ptr, i32, [4 x i8], %class.vector.29, i8, [7 x i8], ptr, i8 }>
%class.heap = type { %class.svector.34, %class.svector.34 }
%class.svector.34 = type { %class.vector.35 }
%class.vector.35 = type { ptr }
%"class.std::__cxx11::list" = type { %"class.std::__cxx11::_List_base" }
%"class.std::__cxx11::_List_base" = type { %"struct.std::__cxx11::_List_base<unsigned int, std::allocator<unsigned int>>::_List_impl" }
%"struct.std::__cxx11::_List_base<unsigned int, std::allocator<unsigned int>>::_List_impl" = type { %"struct.std::__detail::_List_node_header" }
%"struct.std::__detail::_List_node_header" = type { %"struct.std::__detail::_List_node_base", i64 }
%"struct.std::__detail::_List_node_base" = type { ptr, ptr }
%class.svector = type { %class.vector.1 }
%class.vector.1 = type { ptr }
%"class.lp::indexed_vector" = type { %"class.std::vector", %"class.std::vector.15" }
%"class.std::vector" = type { %"struct.std::_Vector_base" }
%"struct.std::_Vector_base" = type { %"struct.std::_Vector_base<rational, std_allocator<rational>>::_Vector_impl" }
%"struct.std::_Vector_base<rational, std_allocator<rational>>::_Vector_impl" = type { %"struct.std::_Vector_base<rational, std_allocator<rational>>::_Vector_impl_data" }
%"struct.std::_Vector_base<rational, std_allocator<rational>>::_Vector_impl_data" = type { ptr, ptr, ptr }
%"class.std::vector.15" = type { %"struct.std::_Vector_base.16" }
%"struct.std::_Vector_base.16" = type { %"struct.std::_Vector_base<unsigned int, std_allocator<unsigned int>>::_Vector_impl" }
%"struct.std::_Vector_base<unsigned int, std_allocator<unsigned int>>::_Vector_impl" = type { %"struct.std::_Vector_base<unsigned int, std_allocator<unsigned int>>::_Vector_impl_data" }
%"struct.std::_Vector_base<unsigned int, std_allocator<unsigned int>>::_Vector_impl_data" = type { ptr, ptr, ptr }
%"class.lp::stacked_vector.27" = type { %class.svector, %class.svector, %class.vector.28, %class.vector.29, %class.svector }
%class.vector.28 = type { ptr }
%class.indexed_uint_set = type { i32, %class.svector, %class.svector }
%"class.lp::stacked_vector<lp::column_type>::ref" = type <{ ptr, i32, [4 x i8] }>

; Function Attrs: mustprogress nounwind uwtable
define linkonce_odr hidden noundef nonnull align 4 dereferenceable(4) ptr @_ZN6vectorIN2lp11column_typeELb1EjEixEj(ptr noundef nonnull align 8 dereferenceable(8) %0, i32 noundef %1) #4 comdat align 2 {
  %3 = alloca ptr, align 8
  %4 = alloca i32, align 4
  store ptr %0, ptr %3, align 8, !tbaa !286
  store i32 %1, ptr %4, align 4, !tbaa !8
  %5 = load ptr, ptr %3, align 8
  %6 = getelementptr inbounds nuw %class.vector.11, ptr %5, i32 0, i32 0
  %7 = load ptr, ptr %6, align 8, !tbaa !287
  %8 = load i32, ptr %4, align 4, !tbaa !8
  %9 = zext i32 %8 to i64
  %10 = getelementptr inbounds nuw i32, ptr %7, i64 %9
  ret ptr %10
}

; Function Attrs: mustprogress nounwind uwtable
define linkonce_odr hidden void @_ZN2lp14stacked_vectorINS_11column_typeEE3refC2ERS2_j(ptr noundef nonnull align 8 dereferenceable(12) %0, ptr noundef nonnull align 8 dereferenceable(40) %1, i32 noundef %2) unnamed_addr #4 comdat align 2 {
  %4 = alloca ptr, align 8
  %5 = alloca ptr, align 8
  %6 = alloca i32, align 4
  store ptr %0, ptr %4, align 8, !tbaa !279
  store ptr %1, ptr %5, align 8, !tbaa !277
  store i32 %2, ptr %6, align 4, !tbaa !8
  %7 = load ptr, ptr %4, align 8
  %8 = getelementptr inbounds nuw %"class.lp::stacked_vector<lp::column_type>::ref", ptr %7, i32 0, i32 0
  %9 = load ptr, ptr %5, align 8, !tbaa !277
  store ptr %9, ptr %8, align 8, !tbaa !277
  %10 = getelementptr inbounds nuw %"class.lp::stacked_vector<lp::column_type>::ref", ptr %7, i32 0, i32 1
  %11 = load i32, ptr %6, align 4, !tbaa !8
  store i32 %11, ptr %10, align 8, !tbaa !283
  ret void
}

; Function Attrs: mustprogress uwtable
define linkonce_odr hidden noundef zeroext i1 @_ZNK2lp14stacked_vectorINS_11column_typeEE3refeqERKS1_(ptr noundef nonnull align 8 dereferenceable(12) %0, ptr noundef nonnull align 4 dereferenceable(4) %1) #6 comdat align 2 {
  %3 = alloca ptr, align 8
  %4 = alloca ptr, align 8
  store ptr %0, ptr %3, align 8, !tbaa !279
  store ptr %1, ptr %4, align 8, !tbaa !266
  %5 = load ptr, ptr %3, align 8
  %6 = getelementptr inbounds nuw %"class.lp::stacked_vector<lp::column_type>::ref", ptr %5, i32 0, i32 0
  %7 = load ptr, ptr %6, align 8, !tbaa !281
  %8 = getelementptr inbounds nuw %"class.lp::stacked_vector", ptr %7, i32 0, i32 3
  %9 = getelementptr inbounds nuw %"class.lp::stacked_vector<lp::column_type>::ref", ptr %5, i32 0, i32 1
  %10 = load i32, ptr %9, align 8, !tbaa !283
  %11 = call noundef nonnull align 4 dereferenceable(4) ptr @_ZN6vectorIN2lp11column_typeELb1EjEixEj(ptr noundef nonnull align 8 dereferenceable(8) %8, i32 noundef %10)
  %12 = load i32, ptr %11, align 4, !tbaa !249
  %13 = load ptr, ptr %4, align 8, !tbaa !266
  %14 = load i32, ptr %13, align 4, !tbaa !249
  %15 = icmp eq i32 %12, %14
  ret i1 %15
}

; Function Attrs: mustprogress uwtable
define linkonce_odr hidden { ptr, i32 } @_ZN2lp14stacked_vectorINS_11column_typeEEixEj(ptr noundef nonnull align 8 dereferenceable(40) %0, i32 noundef %1) #6 comdat align 2 {
  %3 = alloca %"class.lp::stacked_vector<lp::column_type>::ref", align 8
  %4 = alloca ptr, align 8
  %5 = alloca i32, align 4
  store ptr %0, ptr %4, align 8, !tbaa !277
  store i32 %1, ptr %5, align 4, !tbaa !8
  %6 = load ptr, ptr %4, align 8
  %7 = load i32, ptr %5, align 4, !tbaa !8
  call void @_ZN2lp14stacked_vectorINS_11column_typeEE3refC2ERS2_j(ptr noundef nonnull align 8 dereferenceable(12) %3, ptr noundef nonnull align 8 dereferenceable(40) %6, i32 noundef %7)
  %8 = load { ptr, i32 }, ptr %3, align 8
  ret { ptr, i32 } %8
}

; Function Attrs: mustprogress uwtable
define hidden noundef zeroext i1 @_ZNK2lp10int_solver7is_freeEj(ptr noundef nonnull align 8 dereferenceable(32) %0, i32 noundef %1) #6 align 2 {
  %3 = alloca ptr, align 8
  %4 = alloca i32, align 4
  %5 = alloca %"class.lp::stacked_vector<lp::column_type>::ref", align 8
  %6 = alloca { ptr, i32 }, align 8
  %7 = alloca i32, align 4
  store ptr %0, ptr %3, align 8, !tbaa !20
  store i32 %1, ptr %4, align 4, !tbaa !8
  %8 = load ptr, ptr %3, align 8
  call void @llvm.lifetime.start.p0(i64 16, ptr %5) #3
  %9 = getelementptr inbounds nuw %"class.lp::int_solver", ptr %8, i32 0, i32 1
  %10 = load ptr, ptr %9, align 8, !tbaa !36
  %11 = getelementptr inbounds nuw %"class.lp::lar_core_solver", ptr %10, i32 0, i32 7
  %12 = load i32, ptr %4, align 4, !tbaa !8
  %13 = call { ptr, i32 } @_ZN2lp14stacked_vectorINS_11column_typeEEixEj(ptr noundef nonnull align 8 dereferenceable(40) %11, i32 noundef %12)
  store { ptr, i32 } %13, ptr %6, align 8
  call void @llvm.memcpy.p0.p0.i64(ptr align 8 %5, ptr align 8 %6, i64 12, i1 false)
  call void @llvm.lifetime.start.p0(i64 4, ptr %7) #3
  store i32 0, ptr %7, align 4, !tbaa !249
  %14 = call noundef zeroext i1 @_ZNK2lp14stacked_vectorINS_11column_typeEE3refeqERKS1_(ptr noundef nonnull align 8 dereferenceable(12) %5, ptr noundef nonnull align 4 dereferenceable(4) %7)
  call void @llvm.lifetime.end.p0(i64 4, ptr %7) #3
  call void @llvm.lifetime.end.p0(i64 16, ptr %5) #3
  ret i1 %14
}